; Function Attrs: mustprogress uwtable
define dso_local void @_ZN5cmake24CleanupCommandsAndMacrosEv(ptr noundef nonnull align 8 dereferenceable(2216) %0) local_unnamed_addr #3 align 2 personality ptr @__gxx_personality_v0 {
  %2 = alloca %class.cmStateSnapshot, align 8
  %3 = getelementptr inbounds i8, ptr %0, i64 1912
  %4 = load ptr, ptr %3, align 8
  call void @_ZN7cmState5ResetEv(ptr dead_on_unwind nonnull writable sret(%class.cmStateSnapshot) align 8 %2, ptr noundef nonnull align 8 dereferenceable(705) %4)
  %5 = getelementptr inbounds i8, ptr %0, i64 1920
  call void @llvm.memcpy.p0.p0.i64(ptr noundef nonnull align 8 dereferenceable(24) %5, ptr noundef nonnull align 8 dereferenceable(24) %2, i64 24, i1 false)
  %6 = load ptr, ptr %3, align 8
  call void @_ZN7cmState25RemoveUserDefinedCommandsEv(ptr noundef nonnull align 8 dereferenceable(705) %6)
  call void @_ZN15cmStateSnapshot21SetDefaultDefinitionsEv(ptr noundef nonnull align 8 dereferenceable(24) %5)
  %7 = getelementptr inbounds i8, ptr %0, i64 1752
  %8 = getelementptr inbounds i8, ptr %0, i64 1768
  %9 = load ptr, ptr %8, align 8
  invoke void @_ZNSt8_Rb_treeINSt7__cxx1112basic_stringIcSt11char_traitsIcESaIcEEESt4pairIKS5_15cmInstalledFileESt10_Select1stIS9_ESt4lessIS5_ESaIS9_EE8_M_eraseEPSt13_Rb_tree_nodeIS9_E(ptr noundef nonnull align 8 dereferenceable(48) %7, ptr noundef %9)
          to label %_ZNSt3mapINSt7__cxx1112basic_stringIcSt11char_traitsIcESaIcEEE15cmInstalledFileSt4lessIS5_ESaISt4pairIKS5_S6_EEE5clearEv.exit unwind label %10

10:                                               ; preds = %1
  %11 = landingpad { ptr, i32 }
          catch ptr null
  %12 = extractvalue { ptr, i32 } %11, 0
  call void @__clang_call_terminate(ptr %12) #33
  unreachable

_ZNSt3mapINSt7__cxx1112basic_stringIcSt11char_traitsIcESaIcEEE15cmInstalledFileSt4lessIS5_ESaISt4pairIKS5_S6_EEE5clearEv.exit: ; preds = %1
  %13 = getelementptr inbounds i8, ptr %0, i64 1760
  store ptr null, ptr %8, align 8
  %14 = getelementptr inbounds i8, ptr %0, i64 1776
  store ptr %13, ptr %14, align 8
  %15 = getelementptr inbounds i8, ptr %0, i64 1784
  store ptr %13, ptr %15, align 8
  %16 = getelementptr inbounds i8, ptr %0, i64 1792
  store i64 0, ptr %16, align 8
  ret void
}